target datalayout = "e-m:e-p270:32:32-p271:32:32-p272:64:64-i64:64-i128:128-f80:128-n8:16:32:64-S128"
target triple = "x86_64-pc-linux-gnu"

%struct._GC_arrays = type { i64, i64, i64, ptr, i64, i64, i64, i64, i64, i64, i64, i64, i64, i64, ptr, ptr, ptr, ptr, ptr, ptr, ptr, ptr, i32, i32, i32, i64, i64, i64, i64, i64, ptr, ptr, ptr, i64, i64, i32, i64, i64, ptr, i64, %struct.dl_hashtbl_s, %struct.dl_hashtbl_s, %struct.fnlz_roots_s, i32, ptr, i64, i64, i32, i32, i64, i64, i64, ptr, [64 x ptr], [8 x i8], [64 x ptr], [129 x ptr], [129 x ptr], [129 x ptr], [129 x ptr], [2049 x i64], [129 x ptr], [4096 x i8], [4096 x i64], [4096 x i64], ptr, [2048 x %struct.roots], [512 x %struct.exclusion], [2048 x ptr] }
%struct.dl_hashtbl_s = type { ptr, i64, i32 }
%struct.fnlz_roots_s = type { ptr, ptr }
%struct.roots = type { ptr, ptr, ptr, i32 }
%struct.exclusion = type { ptr, ptr }
%struct.GC_ms_entry = type { ptr, %union.word_ptr_ao_u }
%union.word_ptr_ao_u = type { i64 }
%struct.typed_ext_descr_t = type { i64, i32 }
%struct.hce = type { i64, ptr }

@GC_arrays = global %struct._GC_arrays zeroinitializer, align 8
@GC_print_stats = internal global i32 0, align 4
@GC_parallel = global i32 0, align 4
@GC_least_plausible_heap_addr = global ptr inttoptr (i64 -1 to ptr), align 8
@GC_greatest_plausible_heap_addr = global ptr null, align 8
@GC_typed_mark_proc_index = internal global i32 0, align 4
@.str.215 = private unnamed_addr constant [48 x i8] c"Mark stack overflow; current size: %lu entries\0A\00", align 1

; Function Attrs: nounwind uwtable
define internal ptr @GC_signal_mark_stack_overflow(ptr noundef %0) #0 {
  %2 = alloca ptr, align 8
  store ptr %0, ptr %2, align 8
  %3 = getelementptr inbounds %struct._GC_arrays, ptr @GC_arrays, i32 0, i32 35
  store i32 5, ptr %3, align 8
  %4 = load i32, ptr @GC_parallel, align 4
  %5 = icmp ne i32 %4, 0
  br i1 %5, label %8, label %6

6:                                                ; preds = %1
  %7 = getelementptr inbounds %struct._GC_arrays, ptr @GC_arrays, i32 0, i32 22
  store i32 1, ptr %7, align 8
  br label %8

8:                                                ; preds = %6, %1
  %9 = load i32, ptr @GC_print_stats, align 4
  %10 = icmp ne i32 %9, 0
  %11 = xor i1 %10, true
  %12 = zext i1 %11 to i32
  %13 = sext i32 %12 to i64
  %14 = icmp ne i64 %13, 0
  br i1 %14, label %15, label %16

15:                                               ; preds = %8
  br label %19

16:                                               ; preds = %8
  %17 = getelementptr inbounds %struct._GC_arrays, ptr @GC_arrays, i32 0, i32 34
  %18 = load i64, ptr %17, align 8
  call void (ptr, ...) @GC_log_printf(ptr noundef @.str.215, i64 noundef %18)
  br label %19

19:                                               ; preds = %16, %15
  %20 = load ptr, ptr %2, align 8
  %21 = getelementptr inbounds %struct.GC_ms_entry, ptr %20, i64 -512
  ret ptr %21
}

; Function Attrs: nounwind uwtable
define ptr @GC_custom_push_proc(i64 noundef %0, ptr noundef %1, ptr noundef %2, ptr noundef %3) #0 {
  %5 = alloca i64, align 8
  %6 = alloca ptr, align 8
  %7 = alloca ptr, align 8
  %8 = alloca ptr, align 8
  store i64 %0, ptr %5, align 8
  store ptr %1, ptr %6, align 8
  store ptr %2, ptr %7, align 8
  store ptr %3, ptr %8, align 8
  %9 = load ptr, ptr %7, align 8
  %10 = getelementptr inbounds %struct.GC_ms_entry, ptr %9, i32 1
  store ptr %10, ptr %7, align 8
  %11 = load ptr, ptr %7, align 8
  %12 = ptrtoint ptr %11 to i64
  %13 = load ptr, ptr %8, align 8
  %14 = ptrtoint ptr %13 to i64
  %15 = icmp uge i64 %12, %14
  br i1 %15, label %16, label %19

16:                                               ; preds = %4
  %17 = load ptr, ptr %7, align 8
  %18 = call ptr @GC_signal_mark_stack_overflow(ptr noundef %17)
  store ptr %18, ptr %7, align 8
  br label %19

19:                                               ; preds = %16, %4
  %20 = load ptr, ptr %6, align 8
  %21 = load ptr, ptr %7, align 8
  %22 = getelementptr inbounds %struct.GC_ms_entry, ptr %21, i32 0, i32 0
  store ptr %20, ptr %22, align 8
  %23 = load i64, ptr %5, align 8
  %24 = load ptr, ptr %7, align 8
  %25 = getelementptr inbounds %struct.GC_ms_entry, ptr %24, i32 0, i32 1
  store i64 %23, ptr %25, align 8
  %26 = load ptr, ptr %7, align 8
  ret ptr %26
}

; Function Attrs: nounwind uwtable
define internal ptr @GC_typed_mark_proc(ptr noundef %0, ptr noundef %1, ptr noundef %2, i64 noundef %3) #0 {
  %5 = alloca ptr, align 8
  %6 = alloca ptr, align 8
  %7 = alloca ptr, align 8
  %8 = alloca i64, align 8
  %9 = alloca i64, align 8
  %10 = alloca ptr, align 8
  %11 = alloca ptr, align 8
  %12 = alloca ptr, align 8
  %13 = alloca [8 x %struct.hce], align 16
  %14 = alloca i64, align 8
  %15 = alloca ptr, align 8
  %16 = alloca ptr, align 8
  store ptr %0, ptr %5, align 8
  store ptr %1, ptr %6, align 8
  store ptr %2, ptr %7, align 8
  store i64 %3, ptr %8, align 8
  %17 = load ptr, ptr %5, align 8
  store ptr %17, ptr %10, align 8
  %18 = load ptr, ptr @GC_greatest_plausible_heap_addr, align 8
  store ptr %18, ptr %11, align 8
  %19 = load ptr, ptr @GC_least_plausible_heap_addr, align 8
  store ptr %19, ptr %12, align 8
  %20 = getelementptr inbounds %struct._GC_arrays, ptr @GC_arrays, i32 0, i32 52
  %21 = load ptr, ptr %20, align 8
  %22 = load i64, ptr %8, align 8
  %23 = getelementptr inbounds %struct.typed_ext_descr_t, ptr %21, i64 %22
  %24 = getelementptr inbounds %struct.typed_ext_descr_t, ptr %23, i32 0, i32 0
  %25 = load i64, ptr %24, align 8
  store i64 %25, ptr %9, align 8
  %26 = getelementptr inbounds [8 x %struct.hce], ptr %13, i64 0, i64 0
  call void @llvm.memset.p0.i64(ptr align 16 %26, i8 0, i64 128, i1 false)
  br label %27

27:                                               ; preds = %90, %4
  %28 = load i64, ptr %9, align 8
  %29 = icmp ne i64 %28, 0
  br i1 %29, label %30, label %95

30:                                               ; preds = %27
  %31 = load i64, ptr %9, align 8
  %32 = and i64 %31, 1
  %33 = icmp ne i64 %32, 0
  br i1 %33, label %34, label %89

34:                                               ; preds = %30
  %35 = load ptr, ptr %10, align 8
  %36 = load i64, ptr %35, align 8
  store i64 %36, ptr %14, align 8
  %37 = load i64, ptr %14, align 8
  %38 = load ptr, ptr %12, align 8
  %39 = ptrtoint ptr %38 to i64
  %40 = icmp ugt i64 %37, %39
  br i1 %40, label %41, label %88

41:                                               ; preds = %34
  %42 = load i64, ptr %14, align 8
  %43 = load ptr, ptr %11, align 8
  %44 = ptrtoint ptr %43 to i64
  %45 = icmp ult i64 %42, %44
  br i1 %45, label %46, label %88

46:                                               ; preds = %41
  br label %47

47:                                               ; preds = %46
  %48 = getelementptr inbounds [8 x %struct.hce], ptr %13, i64 0, i64 0
  %49 = load i64, ptr %14, align 8
  %50 = inttoptr i64 %49 to ptr
  %51 = ptrtoint ptr %50 to i64
  %52 = lshr i64 %51, 12
  %53 = and i64 %52, 7
  %54 = getelementptr inbounds %struct.hce, ptr %48, i64 %53
  store ptr %54, ptr %16, align 8
  %55 = load ptr, ptr %16, align 8
  %56 = getelementptr inbounds %struct.hce, ptr %55, i32 0, i32 0
  %57 = load i64, ptr %56, align 8
  %58 = load i64, ptr %14, align 8
  %59 = inttoptr i64 %58 to ptr
  %60 = ptrtoint ptr %59 to i64
  %61 = lshr i64 %60, 12
  %62 = icmp eq i64 %57, %61
  %63 = zext i1 %62 to i32
  %64 = sext i32 %63 to i64
  %65 = icmp ne i64 %64, 0
  br i1 %65, label %66, label %70

66:                                               ; preds = %47
  %67 = load ptr, ptr %16, align 8
  %68 = getelementptr inbounds %struct.hce, ptr %67, i32 0, i32 1
  %69 = load ptr, ptr %68, align 8
  store ptr %69, ptr %15, align 8
  br label %79

70:                                               ; preds = %47
  %71 = load i64, ptr %14, align 8
  %72 = inttoptr i64 %71 to ptr
  %73 = load ptr, ptr %16, align 8
  %74 = call ptr @GC_header_cache_miss(ptr noundef %72, ptr noundef %73)
  store ptr %74, ptr %15, align 8
  %75 = load ptr, ptr %15, align 8
  %76 = icmp eq ptr null, %75
  br i1 %76, label %77, label %78

77:                                               ; preds = %70
  br label %87

78:                                               ; preds = %70
  br label %79

79:                                               ; preds = %78, %66
  %80 = load i64, ptr %14, align 8
  %81 = inttoptr i64 %80 to ptr
  %82 = load ptr, ptr %6, align 8
  %83 = load ptr, ptr %7, align 8
  %84 = load ptr, ptr %10, align 8
  %85 = load ptr, ptr %15, align 8
  %86 = call ptr @GC_push_contents_hdr(ptr noundef %81, ptr noundef %82, ptr noundef %83, ptr noundef %84, ptr noundef %85, i32 noundef 1)
  store ptr %86, ptr %6, align 8
  br label %87

87:                                               ; preds = %79, %77
  br label %88

88:                                               ; preds = %87, %41, %34
  br label %89

89:                                               ; preds = %88, %30
  br label %90

90:                                               ; preds = %89
  %91 = load i64, ptr %9, align 8
  %92 = lshr i64 %91, 1
  store i64 %92, ptr %9, align 8
  %93 = load ptr, ptr %10, align 8
  %94 = getelementptr inbounds i8, ptr %93, i64 8
  store ptr %94, ptr %10, align 8
  br label %27, !llvm.loop !228

95:                                               ; preds = %27
  %96 = getelementptr inbounds %struct._GC_arrays, ptr @GC_arrays, i32 0, i32 52
  %97 = load ptr, ptr %96, align 8
  %98 = load i64, ptr %8, align 8
  %99 = getelementptr inbounds %struct.typed_ext_descr_t, ptr %97, i64 %98
  %100 = getelementptr inbounds %struct.typed_ext_descr_t, ptr %99, i32 0, i32 1
  %101 = load i32, ptr %100, align 8
  %102 = icmp ne i32 %101, 0
  br i1 %102, label %103, label %117

103:                                              ; preds = %95
  %104 = load i64, ptr %8, align 8
  %105 = add i64 %104, 1
  %106 = shl i64 %105, 6
  %107 = load i32, ptr @GC_typed_mark_proc_index, align 4
  %108 = zext i32 %107 to i64
  %109 = or i64 %106, %108
  %110 = shl i64 %109, 2
  %111 = or i64 %110, 2
  %112 = load ptr, ptr %5, align 8
  %113 = getelementptr inbounds i64, ptr %112, i64 64
  %114 = load ptr, ptr %6, align 8
  %115 = load ptr, ptr %7, align 8
  %116 = call ptr @GC_custom_push_proc(i64 noundef %111, ptr noundef %113, ptr noundef %114, ptr noundef %115)
  store ptr %116, ptr %6, align 8
  br label %117

117:                                              ; preds = %103, %95
  %118 = load ptr, ptr %6, align 8
  ret ptr %118
}