; Function Attrs: nounwind uwtable
define internal ptr @GC_typed_mark_proc(ptr noundef %0, ptr noundef %1, ptr noundef %2, i64 noundef %3) #1 {
  %5 = alloca [8 x %struct.hce], align 16
  %6 = load ptr, ptr @GC_greatest_plausible_heap_addr, align 8
  %7 = load ptr, ptr @GC_least_plausible_heap_addr, align 8
  %8 = load ptr, ptr getelementptr inbounds nuw (i8, ptr @GC_arrays, i64 440), align 8
  %9 = getelementptr inbounds %struct.typed_ext_descr_t, ptr %8, i64 %3
  %10 = load i64, ptr %9, align 8
  call void @llvm.memset.p0.i64(ptr noundef nonnull align 16 dereferenceable(128) %5, i8 0, i64 128, i1 false)
  %.not36 = icmp eq i64 %10, 0
  br i1 %.not36, label %._crit_edge, label %.lr.ph

.lr.ph:                                           ; preds = %4
  %11 = ptrtoint ptr %7 to i64
  %12 = ptrtoint ptr %6 to i64
  br label %13

13:                                               ; preds = %.lr.ph, %34
  %.039 = phi ptr [ %1, %.lr.ph ], [ %.1, %34 ]
  %.02938 = phi i64 [ %10, %.lr.ph ], [ %35, %34 ]
  %.03037 = phi ptr [ %0, %.lr.ph ], [ %36, %34 ]
  %14 = and i64 %.02938, 1
  %.not34 = icmp eq i64 %14, 0
  br i1 %.not34, label %34, label %15

15:                                               ; preds = %13
  %16 = load i64, ptr %.03037, align 8
  %17 = icmp ugt i64 %16, %11
  %18 = icmp ult i64 %16, %12
  %or.cond = select i1 %17, i1 %18, i1 false
  br i1 %or.cond, label %19, label %34

19:                                               ; preds = %15
  %20 = inttoptr i64 %16 to ptr
  %21 = lshr i64 %16, 12
  %22 = and i64 %21, 7
  %23 = getelementptr inbounds nuw %struct.hce, ptr %5, i64 %22
  %24 = load i64, ptr %23, align 16
  %25 = icmp eq i64 %24, %21
  br i1 %25, label %26, label %29

26:                                               ; preds = %19
  %27 = getelementptr inbounds nuw i8, ptr %23, i64 8
  %28 = load ptr, ptr %27, align 8
  br label %32

29:                                               ; preds = %19
  %30 = call fastcc ptr @GC_header_cache_miss(ptr noundef nonnull %20, ptr noundef %23)
  %31 = icmp eq ptr %30, null
  br i1 %31, label %34, label %32

32:                                               ; preds = %29, %26
  %.028 = phi ptr [ %28, %26 ], [ %30, %29 ]
  %33 = tail call fastcc ptr @GC_push_contents_hdr(ptr noundef nonnull %20, ptr noundef %.039, ptr noundef %2, ptr noundef %.028, i32 noundef 1)
  br label %34

34:                                               ; preds = %13, %32, %29, %15
  %.1 = phi ptr [ %33, %32 ], [ %.039, %29 ], [ %.039, %15 ], [ %.039, %13 ]
  %35 = lshr i64 %.02938, 1
  %36 = getelementptr inbounds nuw i8, ptr %.03037, i64 8
  %.not = icmp ult i64 %.02938, 2
  br i1 %.not, label %._crit_edge.loopexit, label %13, !llvm.loop !247

._crit_edge.loopexit:                             ; preds = %34
  %.pre = load ptr, ptr getelementptr inbounds nuw (i8, ptr @GC_arrays, i64 440), align 8
  br label %._crit_edge

._crit_edge:                                      ; preds = %._crit_edge.loopexit, %4
  %37 = phi ptr [ %8, %4 ], [ %.pre, %._crit_edge.loopexit ]
  %.0.lcssa = phi ptr [ %1, %4 ], [ %.1, %._crit_edge.loopexit ]
  %38 = getelementptr inbounds %struct.typed_ext_descr_t, ptr %37, i64 %3, i32 1
  %39 = load i32, ptr %38, align 8
  %.not33 = icmp eq i32 %39, 0
  br i1 %.not33, label %59, label %40

40:                                               ; preds = %._crit_edge
  %41 = shl i64 %3, 6
  %42 = add i64 %41, 64
  %43 = load i32, ptr @GC_typed_mark_proc_index, align 4
  %44 = zext nneg i32 %43 to i64
  %45 = or i64 %42, %44
  %46 = shl i64 %45, 2
  %47 = or disjoint i64 %46, 2
  %48 = getelementptr inbounds nuw i8, ptr %0, i64 512
  %49 = getelementptr inbounds nuw i8, ptr %.0.lcssa, i64 16
  %.not.i = icmp ult ptr %49, %2
  br i1 %.not.i, label %GC_custom_push_proc.exit, label %50

50:                                               ; preds = %40
  store i32 5, ptr getelementptr inbounds nuw (i8, ptr @GC_arrays, i64 272), align 8
  %51 = load i32, ptr @GC_parallel, align 4
  %.not.i.i = icmp eq i32 %51, 0
  br i1 %.not.i.i, label %52, label %53

52:                                               ; preds = %50
  store i32 1, ptr getelementptr inbounds nuw (i8, ptr @GC_arrays, i64 176), align 8
  br label %53

53:                                               ; preds = %52, %50
  %54 = load i32, ptr @GC_print_stats, align 4
  %.not1.i.i = icmp eq i32 %54, 0
  br i1 %.not1.i.i, label %GC_signal_mark_stack_overflow.exit.i, label %55

55:                                               ; preds = %53
  %56 = load i64, ptr getelementptr inbounds nuw (i8, ptr @GC_arrays, i64 264), align 8
  tail call void (ptr, ...) @GC_log_printf(ptr noundef nonnull @.str.215, i64 noundef %56)
  br label %GC_signal_mark_stack_overflow.exit.i

GC_signal_mark_stack_overflow.exit.i:             ; preds = %55, %53
  %57 = getelementptr inbounds i8, ptr %.0.lcssa, i64 -8176
  br label %GC_custom_push_proc.exit

GC_custom_push_proc.exit:                         ; preds = %40, %GC_signal_mark_stack_overflow.exit.i
  %.0.i = phi ptr [ %57, %GC_signal_mark_stack_overflow.exit.i ], [ %49, %40 ]
  store ptr %48, ptr %.0.i, align 8
  %58 = getelementptr inbounds nuw i8, ptr %.0.i, i64 8
  store i64 %47, ptr %58, align 8
  br label %59

59:                                               ; preds = %GC_custom_push_proc.exit, %._crit_edge
  %.2 = phi ptr [ %.0.i, %GC_custom_push_proc.exit ], [ %.0.lcssa, %._crit_edge ]
  ret ptr %.2
}